; Function Attrs: nounwind sspstrong uwtable
define internal noundef zeroext i1 @opts_type_bool(ptr noundef readonly captures(none) %v, ptr noundef %name, ptr noundef %obj, ptr noundef %errp) #0 {
entry:
  %call1 = tail call fastcc ptr @lookup_scalar(ptr noundef %v, ptr noundef %name, ptr noundef %errp)
  %tobool.not = icmp eq ptr %call1, null
  br i1 %tobool.not, label %return, label %if.end

if.end:                                           ; preds = %entry
  %str = getelementptr inbounds nuw i8, ptr %call1, i64 8
  %0 = load ptr, ptr %str, align 8
  %tobool2.not = icmp eq ptr %0, null
  br i1 %tobool2.not, label %if.else, label %if.then3

if.then3:                                         ; preds = %if.end
  %1 = load ptr, ptr %call1, align 8
  %call6 = tail call zeroext i1 @qapi_bool_parse(ptr noundef %1, ptr noundef nonnull %0, ptr noundef %obj, ptr noundef %errp) #10
  br i1 %call6, label %if.end9, label %return

if.else:                                          ; preds = %if.end
  store i8 1, ptr %obj, align 1
  br label %if.end9

if.end9:                                          ; preds = %if.then3, %if.else
  %list_mode.i = getelementptr inbounds nuw i8, ptr %v, i64 240
  %2 = load i32, ptr %list_mode.i, align 8
  switch i32 %2, label %if.else.i [
    i32 0, label %if.then.i
    i32 1, label %return
  ]

if.then.i:                                        ; preds = %if.end9
  %unprocessed_opts.i = getelementptr inbounds nuw i8, ptr %v, i64 232
  %3 = load ptr, ptr %unprocessed_opts.i, align 8
  %call.i = tail call i32 @g_hash_table_remove(ptr noundef %3, ptr noundef %name) #10
  br label %return

if.else.i:                                        ; preds = %if.end9
  tail call void @__assert_fail(ptr noundef nonnull @.str.15, ptr noundef nonnull @.str.1, i32 noundef 344, ptr noundef nonnull @__PRETTY_FUNCTION__.processed) #8
  unreachable

return:                                           ; preds = %if.then.i, %if.end9, %if.then3, %entry
  %retval.0 = phi i1 [ false, %entry ], [ false, %if.then3 ], [ true, %if.end9 ], [ true, %if.then.i ]
  ret i1 %retval.0
}